; Function Attrs: nounwind uwtable
define nonnull ptr @l_Lean_PersistentHashMap_contains___at_Lean_Server_isStatefulLspRequestMethod___spec__1___boxed(ptr noundef %0, ptr noundef %1) local_unnamed_addr #1 {
  %3 = tail call i64 @lean_string_hash(ptr noundef %1) #6
  %4 = tail call zeroext range(i8 0, 2) i8 @l_Lean_PersistentHashMap_containsAux___at_Lean_Server_isStatefulLspRequestMethod___spec__2(ptr noundef %0, i64 noundef %3, ptr noundef %1)
  %5 = ptrtoint ptr %1 to i64
  %6 = and i64 %5, 1
  %.not = icmp eq i64 %6, 0
  br i1 %.not, label %7, label %lean_dec.exit

7:                                                ; preds = %2
  %8 = load i32, ptr %1, align 4, !tbaa !4
  %9 = icmp sgt i32 %8, 1
  br i1 %9, label %10, label %12, !prof !11

10:                                               ; preds = %7
  %11 = add nsw i32 %8, -1
  store i32 %11, ptr %1, align 4, !tbaa !4
  br label %lean_dec.exit

12:                                               ; preds = %7
  %.not.i = icmp eq i32 %8, 0
  br i1 %.not.i, label %lean_dec.exit, label %13

13:                                               ; preds = %12
  tail call void @lean_dec_ref_cold(ptr noundef nonnull %1) #6
  br label %lean_dec.exit

lean_dec.exit:                                    ; preds = %13, %12, %10, %2
  %14 = shl nuw nsw i8 %4, 1
  %15 = or disjoint i8 %14, 1
  %16 = zext nneg i8 %15 to i64
  %17 = inttoptr i64 %16 to ptr
  ret ptr %17
}